; Function Attrs: cold mustprogress noreturn uwtable
define noalias noundef nonnull ptr @lean_llvm_position_builder_at_end(i64 noundef %0, i64 noundef %1, i64 noundef %2, ptr noundef readnone captures(none) %3) local_unnamed_addr #1 personality ptr @__gxx_personality_v0 {
  tail call void @_ZN4lean26notify_assertion_violationEPKciS1_(ptr noundef nonnull @.str, i32 noundef 509, ptr noundef nonnull @.str.1)
  %5 = tail call ptr @__cxa_allocate_exception(i64 40) #11
  %6 = getelementptr inbounds nuw i8, ptr %5, i64 8
  %7 = getelementptr inbounds nuw i8, ptr %5, i64 24
  store ptr %7, ptr %6, align 8, !tbaa !10
  %8 = getelementptr inbounds nuw i8, ptr %5, i64 16
  store i64 0, ptr %8, align 8, !tbaa !13
  store i8 0, ptr %7, align 1, !tbaa !16
  store ptr getelementptr inbounds nuw inrange(-16, 24) (i8, ptr @_ZTVN4lean19unreachable_reachedE, i64 16), ptr %5, align 8, !tbaa !17
  tail call void @__cxa_throw(ptr nonnull %5, ptr nonnull @_ZTIN4lean19unreachable_reachedE, ptr nonnull @_ZN4lean9throwableD2Ev) #12
  unreachable
}